; Function Attrs: mustprogress uwtable
define hidden noundef zeroext i1 @_ZNK3nla7nex_mul26all_factors_are_elementaryEv(ptr nocapture noundef nonnull readonly align 8 dereferenceable(48) %this) unnamed_addr #3 align 2 {
entry:
  %m_children.i = getelementptr inbounds i8, ptr %this, i64 40
  %0 = load ptr, ptr %m_children.i, align 8
  %cmp.i.i.i = icmp eq ptr %0, null
  br i1 %cmp.i.i.i, label %return, label %_ZNK3nla7nex_mul3endEv.exit

_ZNK3nla7nex_mul3endEv.exit:                      ; preds = %entry
  %arrayidx.i.i.i = getelementptr inbounds i8, ptr %0, i64 -4
  %1 = load i32, ptr %arrayidx.i.i.i, align 4
  %2 = zext i32 %1 to i64
  %add.ptr.i.i = getelementptr inbounds %"class.nla::nex_pow", ptr %0, i64 %2
  %cmp.not5 = icmp eq i32 %1, 0
  br i1 %cmp.not5, label %return, label %for.body

for.body:                                         ; preds = %_ZNK3nla7nex_mul3endEv.exit, %for.body
  %__begin1.06 = phi ptr [ %incdec.ptr, %for.body ], [ %0, %_ZNK3nla7nex_mul3endEv.exit ]
  %3 = load ptr, ptr %__begin1.06, align 8
  %vtable.i = load ptr, ptr %3, align 8
  %vfn.i = getelementptr inbounds i8, ptr %vtable.i, i64 8
  %4 = load ptr, ptr %vfn.i, align 8
  %call.i = tail call noundef i32 %4(ptr noundef nonnull align 8 dereferenceable(8) %3)
  %5 = and i32 %call.i, -2
  %switch.i.not.not = icmp ne i32 %5, 2
  %incdec.ptr = getelementptr inbounds i8, ptr %__begin1.06, i64 16
  %cmp.not = icmp ne ptr %incdec.ptr, %add.ptr.i.i
  %or.cond.not = select i1 %switch.i.not.not, i1 %cmp.not, i1 false
  br i1 %or.cond.not, label %for.body, label %return

return:                                           ; preds = %for.body, %entry, %_ZNK3nla7nex_mul3endEv.exit
  %cmp.not.lcssa = phi i1 [ true, %_ZNK3nla7nex_mul3endEv.exit ], [ true, %entry ], [ %switch.i.not.not, %for.body ]
  ret i1 %cmp.not.lcssa
}